target datalayout = "e-m:e-p270:32:32-p271:32:32-p272:64:64-i64:64-i128:128-f80:128-n8:16:32:64-S128"
target triple = "x86_64-pc-linux-gnu"

%struct.expert_field = type { i32, i32 }
%struct._packet_info = type { ptr, ptr, i32, i32, %struct.nstime_t, %struct.nstime_t, %struct.nstime_t, i8, ptr, ptr, ptr, ptr, %struct._address, %struct._address, %struct._address, %struct._address, %struct._address, %struct._address, i32, ptr, i8, [3 x i8], %struct.anon, i32, i32, i32, i32, ptr, i8, ptr, ptr, i16, i16, i32, i32, i16, i32, i32, ptr, ptr, ptr, i8, i8, i16, i16, i16, i32, i16, i16, ptr, ptr, ptr, ptr, ptr, i32, i32 }
%struct.nstime_t = type { i64, i32 }
%struct._address = type { i32, i32, ptr, ptr }
%struct.anon = type { i8, [3 x i8] }

@ei_gsm_a_gm_extraneous_data = internal global %struct.expert_field zeroinitializer, align 4
@.str.83 = private unnamed_addr constant [1 x i8] zeroinitializer, align 1
@ei_gsm_a_gm_missing_mandatory_element = internal global %struct.expert_field zeroinitializer, align 4
@.str.1095 = private unnamed_addr constant [62 x i8] c"Missing Mandatory element %s%s, rest of dissection is suspect\00", align 1
@.str.1131 = private unnamed_addr constant [23 x i8] c" - Negotiated LLC SAPI\00", align 1
@.str.1132 = private unnamed_addr constant [18 x i8] c" - Negotiated QoS\00", align 1
@.str.1133 = private unnamed_addr constant [15 x i8] c" - PDP address\00", align 1
@.str.1134 = private unnamed_addr constant [12 x i8] c" - SM cause\00", align 1
@.str.1135 = private unnamed_addr constant [27 x i8] c" - WLAN offload indication\00", align 1

; Function Attrs: null_pointer_is_valid sspstrong uwtable
define internal void @dtap_sm_act_pdp_acc(ptr noundef %0, ptr noundef %1, ptr noundef %2, i32 noundef %3, i32 noundef %4) #1 {
  %6 = alloca ptr, align 8
  %7 = alloca ptr, align 8
  %8 = alloca ptr, align 8
  %9 = alloca i32, align 4
  %10 = alloca i32, align 4
  %11 = alloca i32, align 4
  %12 = alloca i32, align 4
  %13 = alloca i32, align 4
  %14 = alloca i32, align 4
  store ptr %0, ptr %6, align 8
  store ptr %1, ptr %7, align 8
  store ptr %2, ptr %8, align 8
  store i32 %3, ptr %9, align 4
  store i32 %4, ptr %10, align 4
  call void @llvm.lifetime.start.p0(i64 4, ptr %11) #6
  call void @llvm.lifetime.start.p0(i64 4, ptr %12) #6
  call void @llvm.lifetime.start.p0(i64 4, ptr %13) #6
  %15 = load i32, ptr %9, align 4
  store i32 %15, ptr %11, align 4
  %16 = load i32, ptr %10, align 4
  store i32 %16, ptr %13, align 4
  %17 = load ptr, ptr %8, align 8
  %18 = getelementptr inbounds nuw %struct._packet_info, ptr %17, i32 0, i32 37
  store i32 -1, ptr %18, align 4
  %19 = load ptr, ptr %8, align 8
  %20 = getelementptr inbounds nuw %struct._packet_info, ptr %19, i32 0, i32 46
  store i32 1, ptr %20, align 8
  %21 = load i32, ptr %13, align 4
  %22 = icmp sgt i32 %21, 0
  br i1 %22, label %23, label %38

23:                                               ; preds = %5
  %24 = load ptr, ptr %6, align 8
  %25 = load ptr, ptr %7, align 8
  %26 = load ptr, ptr %8, align 8
  %27 = load i32, ptr %11, align 4
  %28 = call zeroext i16 @elem_v(ptr noundef %24, ptr noundef %25, ptr noundef %26, i32 noundef 5, i32 noundef 54, i32 noundef %27, ptr noundef @.str.1131)
  %29 = zext i16 %28 to i32
  store i32 %29, ptr %12, align 4
  %30 = icmp ugt i32 %29, 0
  br i1 %30, label %31, label %38

31:                                               ; preds = %23
  %32 = load i32, ptr %12, align 4
  %33 = load i32, ptr %11, align 4
  %34 = add i32 %33, %32
  store i32 %34, ptr %11, align 4
  %35 = load i32, ptr %12, align 4
  %36 = load i32, ptr %13, align 4
  %37 = sub i32 %36, %35
  store i32 %37, ptr %13, align 4
  br label %45

38:                                               ; preds = %23, %5
  %39 = load ptr, ptr %7, align 8
  %40 = load ptr, ptr %8, align 8
  %41 = load ptr, ptr %6, align 8
  %42 = load i32, ptr %11, align 4
  %43 = call ptr @get_gsm_a_msg_string(i32 noundef 5, i32 noundef 54)
  %44 = call ptr (ptr, ptr, ptr, ptr, i32, i32, ptr, ...) @proto_tree_add_expert_format(ptr noundef %39, ptr noundef %40, ptr noundef @ei_gsm_a_gm_missing_mandatory_element, ptr noundef %41, i32 noundef %42, i32 noundef 0, ptr noundef @.str.1095, ptr noundef %43, ptr noundef @.str.1131)
  br label %45

45:                                               ; preds = %38, %31
  %46 = load i32, ptr %13, align 4
  %47 = icmp sgt i32 %46, 0
  br i1 %47, label %48, label %64

48:                                               ; preds = %45
  %49 = load ptr, ptr %6, align 8
  %50 = load ptr, ptr %7, align 8
  %51 = load ptr, ptr %8, align 8
  %52 = load i32, ptr %11, align 4
  %53 = load i32, ptr %13, align 4
  %54 = call zeroext i16 @elem_lv(ptr noundef %49, ptr noundef %50, ptr noundef %51, i32 noundef 5, i32 noundef 48, i32 noundef %52, i32 noundef %53, ptr noundef @.str.1132)
  %55 = zext i16 %54 to i32
  store i32 %55, ptr %12, align 4
  %56 = icmp ugt i32 %55, 0
  br i1 %56, label %57, label %64

57:                                               ; preds = %48
  %58 = load i32, ptr %12, align 4
  %59 = load i32, ptr %11, align 4
  %60 = add i32 %59, %58
  store i32 %60, ptr %11, align 4
  %61 = load i32, ptr %12, align 4
  %62 = load i32, ptr %13, align 4
  %63 = sub i32 %62, %61
  store i32 %63, ptr %13, align 4
  br label %71

64:                                               ; preds = %48, %45
  %65 = load ptr, ptr %7, align 8
  %66 = load ptr, ptr %8, align 8
  %67 = load ptr, ptr %6, align 8
  %68 = load i32, ptr %11, align 4
  %69 = call ptr @get_gsm_a_msg_string(i32 noundef 5, i32 noundef 48)
  %70 = call ptr (ptr, ptr, ptr, ptr, i32, i32, ptr, ...) @proto_tree_add_expert_format(ptr noundef %65, ptr noundef %66, ptr noundef @ei_gsm_a_gm_missing_mandatory_element, ptr noundef %67, i32 noundef %68, i32 noundef 0, ptr noundef @.str.1095, ptr noundef %69, ptr noundef @.str.1132)
  br label %71

71:                                               ; preds = %64, %57
  %72 = load i32, ptr %13, align 4
  %73 = icmp sgt i32 %72, 0
  br i1 %73, label %74, label %89

74:                                               ; preds = %71
  %75 = load ptr, ptr %6, align 8
  %76 = load ptr, ptr %7, align 8
  %77 = load ptr, ptr %8, align 8
  %78 = load i32, ptr %11, align 4
  %79 = call zeroext i16 @elem_v(ptr noundef %75, ptr noundef %76, ptr noundef %77, i32 noundef 5, i32 noundef 68, i32 noundef %78, ptr noundef null)
  %80 = zext i16 %79 to i32
  store i32 %80, ptr %12, align 4
  %81 = icmp ugt i32 %80, 0
  br i1 %81, label %82, label %89

82:                                               ; preds = %74
  %83 = load i32, ptr %12, align 4
  %84 = load i32, ptr %11, align 4
  %85 = add i32 %84, %83
  store i32 %85, ptr %11, align 4
  %86 = load i32, ptr %12, align 4
  %87 = load i32, ptr %13, align 4
  %88 = sub i32 %87, %86
  store i32 %88, ptr %13, align 4
  br label %96

89:                                               ; preds = %74, %71
  %90 = load ptr, ptr %7, align 8
  %91 = load ptr, ptr %8, align 8
  %92 = load ptr, ptr %6, align 8
  %93 = load i32, ptr %11, align 4
  %94 = call ptr @get_gsm_a_msg_string(i32 noundef 5, i32 noundef 68)
  %95 = call ptr (ptr, ptr, ptr, ptr, i32, i32, ptr, ...) @proto_tree_add_expert_format(ptr noundef %90, ptr noundef %91, ptr noundef @ei_gsm_a_gm_missing_mandatory_element, ptr noundef %92, i32 noundef %93, i32 noundef 0, ptr noundef @.str.1095, ptr noundef %94, ptr noundef @.str.83)
  br label %96

96:                                               ; preds = %89, %82
  %97 = load i32, ptr %13, align 4
  %98 = icmp sle i32 %97, 0
  br i1 %98, label %99, label %100

99:                                               ; preds = %96
  store i32 1, ptr %14, align 4
  br label %290

100:                                              ; preds = %96
  %101 = load ptr, ptr %6, align 8
  %102 = load ptr, ptr %7, align 8
  %103 = load ptr, ptr %8, align 8
  %104 = load i32, ptr %11, align 4
  %105 = load i32, ptr %13, align 4
  %106 = call zeroext i16 @elem_tlv(ptr noundef %101, ptr noundef %102, ptr noundef %103, i8 noundef zeroext 43, i32 noundef 5, i32 noundef 47, i32 noundef %104, i32 noundef %105, ptr noundef @.str.1133)
  %107 = zext i16 %106 to i32
  store i32 %107, ptr %12, align 4
  %108 = icmp ugt i32 %107, 0
  br i1 %108, label %109, label %116

109:                                              ; preds = %100
  %110 = load i32, ptr %12, align 4
  %111 = load i32, ptr %11, align 4
  %112 = add i32 %111, %110
  store i32 %112, ptr %11, align 4
  %113 = load i32, ptr %12, align 4
  %114 = load i32, ptr %13, align 4
  %115 = sub i32 %114, %113
  store i32 %115, ptr %13, align 4
  br label %116

116:                                              ; preds = %109, %100
  %117 = load i32, ptr %13, align 4
  %118 = icmp sle i32 %117, 0
  br i1 %118, label %119, label %120

119:                                              ; preds = %116
  store i32 1, ptr %14, align 4
  br label %290

120:                                              ; preds = %116
  %121 = load ptr, ptr %6, align 8
  %122 = load ptr, ptr %7, align 8
  %123 = load ptr, ptr %8, align 8
  %124 = load i32, ptr %11, align 4
  %125 = load i32, ptr %13, align 4
  %126 = call zeroext i16 @elem_tlv(ptr noundef %121, ptr noundef %122, ptr noundef %123, i8 noundef zeroext 39, i32 noundef 5, i32 noundef 45, i32 noundef %124, i32 noundef %125, ptr noundef null)
  %127 = zext i16 %126 to i32
  store i32 %127, ptr %12, align 4
  %128 = icmp ugt i32 %127, 0
  br i1 %128, label %129, label %136

129:                                              ; preds = %120
  %130 = load i32, ptr %12, align 4
  %131 = load i32, ptr %11, align 4
  %132 = add i32 %131, %130
  store i32 %132, ptr %11, align 4
  %133 = load i32, ptr %12, align 4
  %134 = load i32, ptr %13, align 4
  %135 = sub i32 %134, %133
  store i32 %135, ptr %13, align 4
  br label %136

136:                                              ; preds = %129, %120
  %137 = load i32, ptr %13, align 4
  %138 = icmp sle i32 %137, 0
  br i1 %138, label %139, label %140

139:                                              ; preds = %136
  store i32 1, ptr %14, align 4
  br label %290

140:                                              ; preds = %136
  %141 = load ptr, ptr %6, align 8
  %142 = load ptr, ptr %7, align 8
  %143 = load ptr, ptr %8, align 8
  %144 = load i32, ptr %11, align 4
  %145 = load i32, ptr %13, align 4
  %146 = call zeroext i16 @elem_tlv(ptr noundef %141, ptr noundef %142, ptr noundef %143, i8 noundef zeroext 52, i32 noundef 5, i32 noundef 56, i32 noundef %144, i32 noundef %145, ptr noundef null)
  %147 = zext i16 %146 to i32
  store i32 %147, ptr %12, align 4
  %148 = icmp ugt i32 %147, 0
  br i1 %148, label %149, label %156

149:                                              ; preds = %140
  %150 = load i32, ptr %12, align 4
  %151 = load i32, ptr %11, align 4
  %152 = add i32 %151, %150
  store i32 %152, ptr %11, align 4
  %153 = load i32, ptr %12, align 4
  %154 = load i32, ptr %13, align 4
  %155 = sub i32 %154, %153
  store i32 %155, ptr %13, align 4
  br label %156

156:                                              ; preds = %149, %140
  %157 = load i32, ptr %13, align 4
  %158 = icmp sle i32 %157, 0
  br i1 %158, label %159, label %160

159:                                              ; preds = %156
  store i32 1, ptr %14, align 4
  br label %290

160:                                              ; preds = %156
  %161 = load ptr, ptr %6, align 8
  %162 = load ptr, ptr %7, align 8
  %163 = load ptr, ptr %8, align 8
  %164 = load i32, ptr %11, align 4
  %165 = load i32, ptr %13, align 4
  %166 = call zeroext i16 @elem_tlv(ptr noundef %161, ptr noundef %162, ptr noundef %163, i8 noundef zeroext 57, i32 noundef 5, i32 noundef 52, i32 noundef %164, i32 noundef %165, ptr noundef @.str.1134)
  %167 = zext i16 %166 to i32
  store i32 %167, ptr %12, align 4
  %168 = icmp ugt i32 %167, 0
  br i1 %168, label %169, label %176

169:                                              ; preds = %160
  %170 = load i32, ptr %12, align 4
  %171 = load i32, ptr %11, align 4
  %172 = add i32 %171, %170
  store i32 %172, ptr %11, align 4
  %173 = load i32, ptr %12, align 4
  %174 = load i32, ptr %13, align 4
  %175 = sub i32 %174, %173
  store i32 %175, ptr %13, align 4
  br label %176

176:                                              ; preds = %169, %160
  %177 = load i32, ptr %13, align 4
  %178 = icmp sle i32 %177, 0
  br i1 %178, label %179, label %180

179:                                              ; preds = %176
  store i32 1, ptr %14, align 4
  br label %290

180:                                              ; preds = %176
  %181 = load ptr, ptr %6, align 8
  %182 = load ptr, ptr %7, align 8
  %183 = load ptr, ptr %8, align 8
  %184 = load i32, ptr %11, align 4
  %185 = call zeroext i16 @elem_tv_short(ptr noundef %181, ptr noundef %182, ptr noundef %183, i8 noundef zeroext -80, i32 noundef 5, i32 noundef 64, i32 noundef %184, ptr noundef null)
  %186 = zext i16 %185 to i32
  store i32 %186, ptr %12, align 4
  %187 = icmp ugt i32 %186, 0
  br i1 %187, label %188, label %195

188:                                              ; preds = %180
  %189 = load i32, ptr %12, align 4
  %190 = load i32, ptr %11, align 4
  %191 = add i32 %190, %189
  store i32 %191, ptr %11, align 4
  %192 = load i32, ptr %12, align 4
  %193 = load i32, ptr %13, align 4
  %194 = sub i32 %193, %192
  store i32 %194, ptr %13, align 4
  br label %195

195:                                              ; preds = %188, %180
  %196 = load i32, ptr %13, align 4
  %197 = icmp sle i32 %196, 0
  br i1 %197, label %198, label %199

198:                                              ; preds = %195
  store i32 1, ptr %14, align 4
  br label %290

199:                                              ; preds = %195
  %200 = load ptr, ptr %6, align 8
  %201 = load ptr, ptr %7, align 8
  %202 = load ptr, ptr %8, align 8
  %203 = load i32, ptr %11, align 4
  %204 = call zeroext i16 @elem_tv_short(ptr noundef %200, ptr noundef %201, ptr noundef %202, i8 noundef zeroext -64, i32 noundef 5, i32 noundef 65, i32 noundef %203, ptr noundef @.str.1135)
  %205 = zext i16 %204 to i32
  store i32 %205, ptr %12, align 4
  %206 = icmp ugt i32 %205, 0
  br i1 %206, label %207, label %214

207:                                              ; preds = %199
  %208 = load i32, ptr %12, align 4
  %209 = load i32, ptr %11, align 4
  %210 = add i32 %209, %208
  store i32 %210, ptr %11, align 4
  %211 = load i32, ptr %12, align 4
  %212 = load i32, ptr %13, align 4
  %213 = sub i32 %212, %211
  store i32 %213, ptr %13, align 4
  br label %214

214:                                              ; preds = %207, %199
  %215 = load i32, ptr %13, align 4
  %216 = icmp sle i32 %215, 0
  br i1 %216, label %217, label %218

217:                                              ; preds = %214
  store i32 1, ptr %14, align 4
  br label %290

218:                                              ; preds = %214
  %219 = load ptr, ptr %6, align 8
  %220 = load ptr, ptr %7, align 8
  %221 = load ptr, ptr %8, align 8
  %222 = load i32, ptr %11, align 4
  %223 = load i32, ptr %13, align 4
  %224 = call zeroext i16 @elem_tlv(ptr noundef %219, ptr noundef %220, ptr noundef %221, i8 noundef zeroext 51, i32 noundef 5, i32 noundef 66, i32 noundef %222, i32 noundef %223, ptr noundef null)
  %225 = zext i16 %224 to i32
  store i32 %225, ptr %12, align 4
  %226 = icmp ugt i32 %225, 0
  br i1 %226, label %227, label %234

227:                                              ; preds = %218
  %228 = load i32, ptr %12, align 4
  %229 = load i32, ptr %11, align 4
  %230 = add i32 %229, %228
  store i32 %230, ptr %11, align 4
  %231 = load i32, ptr %12, align 4
  %232 = load i32, ptr %13, align 4
  %233 = sub i32 %232, %231
  store i32 %233, ptr %13, align 4
  br label %234

234:                                              ; preds = %227, %218
  %235 = load i32, ptr %13, align 4
  %236 = icmp sle i32 %235, 0
  br i1 %236, label %237, label %238

237:                                              ; preds = %234
  store i32 1, ptr %14, align 4
  br label %290

238:                                              ; preds = %234
  %239 = load ptr, ptr %6, align 8
  %240 = load ptr, ptr %7, align 8
  %241 = load ptr, ptr %8, align 8
  %242 = load i32, ptr %11, align 4
  %243 = load i32, ptr %13, align 4
  %244 = call zeroext i16 @elem_tlv_e(ptr noundef %239, ptr noundef %240, ptr noundef %241, i8 noundef zeroext 123, i32 noundef 5, i32 noundef 46, i32 noundef %242, i32 noundef %243, ptr noundef null)
  %245 = zext i16 %244 to i32
  store i32 %245, ptr %12, align 4
  %246 = icmp ugt i32 %245, 0
  br i1 %246, label %247, label %254

247:                                              ; preds = %238
  %248 = load i32, ptr %12, align 4
  %249 = load i32, ptr %11, align 4
  %250 = add i32 %249, %248
  store i32 %250, ptr %11, align 4
  %251 = load i32, ptr %12, align 4
  %252 = load i32, ptr %13, align 4
  %253 = sub i32 %252, %251
  store i32 %253, ptr %13, align 4
  br label %254

254:                                              ; preds = %247, %238
  %255 = load i32, ptr %13, align 4
  %256 = icmp sle i32 %255, 0
  br i1 %256, label %257, label %258

257:                                              ; preds = %254
  store i32 1, ptr %14, align 4
  br label %290

258:                                              ; preds = %254
  %259 = load ptr, ptr %6, align 8
  %260 = load ptr, ptr %7, align 8
  %261 = load ptr, ptr %8, align 8
  %262 = load i32, ptr %11, align 4
  %263 = load i32, ptr %13, align 4
  %264 = call zeroext i16 @elem_tlv(ptr noundef %259, ptr noundef %260, ptr noundef %261, i8 noundef zeroext 92, i32 noundef 5, i32 noundef 50, i32 noundef %262, i32 noundef %263, ptr noundef null)
  %265 = zext i16 %264 to i32
  store i32 %265, ptr %12, align 4
  %266 = icmp ugt i32 %265, 0
  br i1 %266, label %267, label %274

267:                                              ; preds = %258
  %268 = load i32, ptr %12, align 4
  %269 = load i32, ptr %11, align 4
  %270 = add i32 %269, %268
  store i32 %270, ptr %11, align 4
  %271 = load i32, ptr %12, align 4
  %272 = load i32, ptr %13, align 4
  %273 = sub i32 %272, %271
  store i32 %273, ptr %13, align 4
  br label %274

274:                                              ; preds = %267, %258
  %275 = load i32, ptr %13, align 4
  %276 = icmp ugt i32 %275, 0
  br i1 %276, label %277, label %289

277:                                              ; preds = %274
  %278 = load ptr, ptr %7, align 8
  %279 = load ptr, ptr %8, align 8
  %280 = load ptr, ptr %6, align 8
  %281 = load i32, ptr %11, align 4
  %282 = load i32, ptr %13, align 4
  %283 = sub i32 %282, 0
  %284 = call ptr @proto_tree_add_expert(ptr noundef %278, ptr noundef %279, ptr noundef @ei_gsm_a_gm_extraneous_data, ptr noundef %280, i32 noundef %281, i32 noundef %283)
  %285 = load i32, ptr %13, align 4
  %286 = sub i32 %285, 0
  %287 = load i32, ptr %11, align 4
  %288 = add i32 %287, %286
  store i32 %288, ptr %11, align 4
  br label %289

289:                                              ; preds = %277, %274
  store i32 0, ptr %14, align 4
  br label %290

290:                                              ; preds = %289, %257, %237, %217, %198, %179, %159, %139, %119, %99
  call void @llvm.lifetime.end.p0(i64 4, ptr %13) #6
  call void @llvm.lifetime.end.p0(i64 4, ptr %12) #6
  call void @llvm.lifetime.end.p0(i64 4, ptr %11) #6
  %291 = load i32, ptr %14, align 4
  switch i32 %291, label %293 [
    i32 0, label %292
    i32 1, label %292
  ]

292:                                              ; preds = %290, %290
  ret void

293:                                              ; preds = %290
  unreachable
}